target datalayout = "e-m:e-p270:32:32-p271:32:32-p272:64:64-i64:64-i128:128-f80:128-n8:16:32:64-S128"
target triple = "x86_64-unknown-linux-gnu"

%"class.std::__shared_count" = type { ptr }
%"struct.std::_Rb_tree_header" = type { %"struct.std::_Rb_tree_node_base", i64 }
%"struct.std::_Rb_tree_node_base" = type { i32, ptr, ptr, ptr }
%"struct.Assimp::Blender::ElemBase" = type { ptr, ptr }
%"struct.Assimp::Blender::ID" = type <{ %"struct.Assimp::Blender::ElemBase", [1024 x i8], i16, [6 x i8] }>
%"class.std::shared_ptr.40" = type { %"class.std::__shared_ptr.41" }
%"class.std::__shared_ptr.41" = type { ptr, %"class.std::__shared_count" }
%"struct.Assimp::Blender::ConversionData" = type { %"class.std::set", %"struct.Assimp::Blender::TempArray.82", %"struct.Assimp::Blender::TempArray.88", %"struct.Assimp::Blender::TempArray.94", %"struct.Assimp::Blender::TempArray.100", %"struct.Assimp::Blender::TempArray.106", %"class.std::deque.112", i32, [19 x i32], ptr }
%"class.std::set" = type { %"class.std::_Rb_tree.77" }
%"class.std::_Rb_tree.77" = type { %"struct.std::_Rb_tree<const Assimp::Blender::Object *, const Assimp::Blender::Object *, std::_Identity<const Assimp::Blender::Object *>, Assimp::Blender::ObjectCompare>::_Rb_tree_impl" }
%"struct.std::_Rb_tree<const Assimp::Blender::Object *, const Assimp::Blender::Object *, std::_Identity<const Assimp::Blender::Object *>, Assimp::Blender::ObjectCompare>::_Rb_tree_impl" = type { %"struct.std::_Rb_tree_key_compare.81", %"struct.std::_Rb_tree_header" }
%"struct.std::_Rb_tree_key_compare.81" = type { %"struct.Assimp::Blender::ObjectCompare" }
%"struct.Assimp::Blender::ObjectCompare" = type { i8 }
%"struct.Assimp::Blender::TempArray.82" = type { %"class.std::vector.83" }
%"class.std::vector.83" = type { %"struct.std::_Vector_base.84" }
%"struct.std::_Vector_base.84" = type { %"struct.std::_Vector_base<aiMesh *, std::allocator<aiMesh *>>::_Vector_impl" }
%"struct.std::_Vector_base<aiMesh *, std::allocator<aiMesh *>>::_Vector_impl" = type { %"struct.std::_Vector_base<aiMesh *, std::allocator<aiMesh *>>::_Vector_impl_data" }
%"struct.std::_Vector_base<aiMesh *, std::allocator<aiMesh *>>::_Vector_impl_data" = type { ptr, ptr, ptr }
%"struct.Assimp::Blender::TempArray.88" = type { %"class.std::vector.89" }
%"class.std::vector.89" = type { %"struct.std::_Vector_base.90" }
%"struct.std::_Vector_base.90" = type { %"struct.std::_Vector_base<aiCamera *, std::allocator<aiCamera *>>::_Vector_impl" }
%"struct.std::_Vector_base<aiCamera *, std::allocator<aiCamera *>>::_Vector_impl" = type { %"struct.std::_Vector_base<aiCamera *, std::allocator<aiCamera *>>::_Vector_impl_data" }
%"struct.std::_Vector_base<aiCamera *, std::allocator<aiCamera *>>::_Vector_impl_data" = type { ptr, ptr, ptr }
%"struct.Assimp::Blender::TempArray.94" = type { %"class.std::vector.95" }
%"class.std::vector.95" = type { %"struct.std::_Vector_base.96" }
%"struct.std::_Vector_base.96" = type { %"struct.std::_Vector_base<aiLight *, std::allocator<aiLight *>>::_Vector_impl" }
%"struct.std::_Vector_base<aiLight *, std::allocator<aiLight *>>::_Vector_impl" = type { %"struct.std::_Vector_base<aiLight *, std::allocator<aiLight *>>::_Vector_impl_data" }
%"struct.std::_Vector_base<aiLight *, std::allocator<aiLight *>>::_Vector_impl_data" = type { ptr, ptr, ptr }
%"struct.Assimp::Blender::TempArray.100" = type { %"class.std::vector.101" }
%"class.std::vector.101" = type { %"struct.std::_Vector_base.102" }
%"struct.std::_Vector_base.102" = type { %"struct.std::_Vector_base<aiMaterial *, std::allocator<aiMaterial *>>::_Vector_impl" }
%"struct.std::_Vector_base<aiMaterial *, std::allocator<aiMaterial *>>::_Vector_impl" = type { %"struct.std::_Vector_base<aiMaterial *, std::allocator<aiMaterial *>>::_Vector_impl_data" }
%"struct.std::_Vector_base<aiMaterial *, std::allocator<aiMaterial *>>::_Vector_impl_data" = type { ptr, ptr, ptr }
%"struct.Assimp::Blender::TempArray.106" = type { %"class.std::vector.107" }
%"class.std::vector.107" = type { %"struct.std::_Vector_base.108" }
%"struct.std::_Vector_base.108" = type { %"struct.std::_Vector_base<aiTexture *, std::allocator<aiTexture *>>::_Vector_impl" }
%"struct.std::_Vector_base<aiTexture *, std::allocator<aiTexture *>>::_Vector_impl" = type { %"struct.std::_Vector_base<aiTexture *, std::allocator<aiTexture *>>::_Vector_impl_data" }
%"struct.std::_Vector_base<aiTexture *, std::allocator<aiTexture *>>::_Vector_impl_data" = type { ptr, ptr, ptr }
%"class.std::deque.112" = type { %"class.std::_Deque_base.113" }
%"class.std::_Deque_base.113" = type { %"struct.std::_Deque_base<std::shared_ptr<Assimp::Blender::Material>, std::allocator<std::shared_ptr<Assimp::Blender::Material>>>::_Deque_impl" }
%"struct.std::_Deque_base<std::shared_ptr<Assimp::Blender::Material>, std::allocator<std::shared_ptr<Assimp::Blender::Material>>>::_Deque_impl" = type { %"struct.std::_Deque_base<std::shared_ptr<Assimp::Blender::Material>, std::allocator<std::shared_ptr<Assimp::Blender::Material>>>::_Deque_impl_data" }
%"struct.std::_Deque_base<std::shared_ptr<Assimp::Blender::Material>, std::allocator<std::shared_ptr<Assimp::Blender::Material>>>::_Deque_impl_data" = type { ptr, i64, %"struct.std::_Deque_iterator.117", %"struct.std::_Deque_iterator.117" }
%"struct.std::_Deque_iterator.117" = type { ptr, ptr, ptr, ptr }
%struct.aiString = type { i32, [1024 x i8] }
%"struct.Assimp::Blender::MTex" = type { %"struct.Assimp::Blender::ElemBase", i32, i32, %"class.std::shared_ptr.40", %"class.std::shared_ptr.141", [32 x i8], i32, i32, i32, i8, [3 x float], [3 x float], float, i32, i16, i16, i16, float, float, float, float, float, float, float, float, float, float, float, float }
%"class.std::shared_ptr.141" = type { %"class.std::__shared_ptr.142" }
%"class.std::__shared_ptr.142" = type { ptr, %"class.std::__shared_count" }
%"struct.Assimp::Blender::Tex" = type { %"struct.Assimp::Blender::ElemBase", %"struct.Assimp::Blender::ID", i32, i32, %"class.std::shared_ptr.144" }
%"class.std::shared_ptr.144" = type { %"class.std::__shared_ptr.145" }
%"class.std::__shared_ptr.145" = type { ptr, %"class.std::__shared_count" }

@.str.22 = private unnamed_addr constant [10 x i8] c"$tex.file\00", align 1
@.str.23 = private unnamed_addr constant [26 x i8] c"Procedural,num=%i,type=%s\00", align 1
@.str.109 = private unnamed_addr constant [7 x i8] c"Clouds\00", align 1
@.str.110 = private unnamed_addr constant [5 x i8] c"Wood\00", align 1
@.str.111 = private unnamed_addr constant [7 x i8] c"Marble\00", align 1
@.str.112 = private unnamed_addr constant [6 x i8] c"Magic\00", align 1
@.str.113 = private unnamed_addr constant [6 x i8] c"Blend\00", align 1
@.str.114 = private unnamed_addr constant [7 x i8] c"Stucci\00", align 1
@.str.115 = private unnamed_addr constant [6 x i8] c"Noise\00", align 1
@.str.116 = private unnamed_addr constant [7 x i8] c"Plugin\00", align 1
@.str.117 = private unnamed_addr constant [9 x i8] c"Musgrave\00", align 1
@.str.118 = private unnamed_addr constant [8 x i8] c"Voronoi\00", align 1
@.str.119 = private unnamed_addr constant [15 x i8] c"DistortedNoise\00", align 1
@.str.120 = private unnamed_addr constant [7 x i8] c"EnvMap\00", align 1
@.str.121 = private unnamed_addr constant [6 x i8] c"Image\00", align 1
@.str.122 = private unnamed_addr constant [10 x i8] c"<Unknown>\00", align 1

; Function Attrs: mustprogress nounwind uwtable
define linkonce_odr hidden noundef ptr @_ZNKSt12__shared_ptrIN6Assimp7Blender3TexELN9__gnu_cxx12_Lock_policyE2EE3getEv(ptr noundef nonnull align 8 dereferenceable(16) %this) #0 comdat align 2 {
entry:
  %this.addr = alloca ptr, align 8
  store ptr %this, ptr %this.addr, align 8
  %this1 = load ptr, ptr %this.addr, align 8
  %_M_ptr = getelementptr inbounds %"class.std::__shared_ptr.142", ptr %this1, i32 0, i32 0
  %0 = load ptr, ptr %_M_ptr, align 8
  ret ptr %0
}

; Function Attrs: mustprogress nounwind uwtable
define linkonce_odr hidden noundef ptr @_ZNKSt19__shared_ptr_accessIN6Assimp7Blender3TexELN9__gnu_cxx12_Lock_policyE2ELb0ELb0EE6_M_getEv(ptr noundef nonnull align 1 dereferenceable(1) %this) #0 comdat align 2 {
entry:
  %this.addr = alloca ptr, align 8
  store ptr %this, ptr %this.addr, align 8
  %this1 = load ptr, ptr %this.addr, align 8
  %call = call noundef ptr @_ZNKSt12__shared_ptrIN6Assimp7Blender3TexELN9__gnu_cxx12_Lock_policyE2EE3getEv(ptr noundef nonnull align 8 dereferenceable(16) %this1) #15
  ret ptr %call
}

; Function Attrs: mustprogress nounwind uwtable
define linkonce_odr hidden noundef ptr @_ZN6Assimp7Blender27GetTextureTypeDisplayStringENS0_3Tex4TypeE(i32 noundef %t) #0 comdat {
entry:
  %retval = alloca ptr, align 8
  %t.addr = alloca i32, align 4
  store i32 %t, ptr %t.addr, align 4
  %0 = load i32, ptr %t.addr, align 4
  switch i32 %0, label %sw.default [
    i32 1, label %sw.bb
    i32 2, label %sw.bb1
    i32 3, label %sw.bb2
    i32 4, label %sw.bb3
    i32 5, label %sw.bb4
    i32 6, label %sw.bb5
    i32 7, label %sw.bb6
    i32 9, label %sw.bb7
    i32 11, label %sw.bb8
    i32 12, label %sw.bb9
    i32 13, label %sw.bb10
    i32 10, label %sw.bb11
    i32 8, label %sw.bb12
  ]

sw.bb:                                            ; preds = %entry
  store ptr @.str.109, ptr %retval, align 8
  br label %return

sw.bb1:                                           ; preds = %entry
  store ptr @.str.110, ptr %retval, align 8
  br label %return

sw.bb2:                                           ; preds = %entry
  store ptr @.str.111, ptr %retval, align 8
  br label %return

sw.bb3:                                           ; preds = %entry
  store ptr @.str.112, ptr %retval, align 8
  br label %return

sw.bb4:                                           ; preds = %entry
  store ptr @.str.113, ptr %retval, align 8
  br label %return

sw.bb5:                                           ; preds = %entry
  store ptr @.str.114, ptr %retval, align 8
  br label %return

sw.bb6:                                           ; preds = %entry
  store ptr @.str.115, ptr %retval, align 8
  br label %return

sw.bb7:                                           ; preds = %entry
  store ptr @.str.116, ptr %retval, align 8
  br label %return

sw.bb8:                                           ; preds = %entry
  store ptr @.str.117, ptr %retval, align 8
  br label %return

sw.bb9:                                           ; preds = %entry
  store ptr @.str.118, ptr %retval, align 8
  br label %return

sw.bb10:                                          ; preds = %entry
  store ptr @.str.119, ptr %retval, align 8
  br label %return

sw.bb11:                                          ; preds = %entry
  store ptr @.str.120, ptr %retval, align 8
  br label %return

sw.bb12:                                          ; preds = %entry
  store ptr @.str.121, ptr %retval, align 8
  br label %return

sw.default:                                       ; preds = %entry
  br label %sw.epilog

sw.epilog:                                        ; preds = %sw.default
  store ptr @.str.122, ptr %retval, align 8
  br label %return

return:                                           ; preds = %sw.epilog, %sw.bb12, %sw.bb11, %sw.bb10, %sw.bb9, %sw.bb8, %sw.bb7, %sw.bb6, %sw.bb5, %sw.bb4, %sw.bb3, %sw.bb2, %sw.bb1, %sw.bb
  %1 = load ptr, ptr %retval, align 8
  ret ptr %1
}

; Function Attrs: mustprogress nounwind uwtable
define linkonce_odr hidden noundef ptr @_ZNKSt19__shared_ptr_accessIN6Assimp7Blender3TexELN9__gnu_cxx12_Lock_policyE2ELb0ELb0EEptEv(ptr noundef nonnull align 1 dereferenceable(1) %this) #0 comdat align 2 {
entry:
  %this.addr = alloca ptr, align 8
  store ptr %this, ptr %this.addr, align 8
  %this1 = load ptr, ptr %this.addr, align 8
  %call = call noundef ptr @_ZNKSt19__shared_ptr_accessIN6Assimp7Blender3TexELN9__gnu_cxx12_Lock_policyE2ELb0ELb0EE6_M_getEv(ptr noundef nonnull align 1 dereferenceable(1) %this1) #15
  ret ptr %call
}

; Function Attrs: mustprogress nounwind uwtable
define linkonce_odr hidden void @_ZN8aiStringC2Ev(ptr noundef nonnull align 4 dereferenceable(1028) %this) unnamed_addr #0 comdat align 2 {
entry:
  %this.addr = alloca ptr, align 8
  store ptr %this, ptr %this.addr, align 8
  %this1 = load ptr, ptr %this.addr, align 8
  %length = getelementptr inbounds %struct.aiString, ptr %this1, i32 0, i32 0
  store i32 0, ptr %length, align 4
  %data = getelementptr inbounds %struct.aiString, ptr %this1, i32 0, i32 1
  %arrayidx = getelementptr inbounds [1024 x i8], ptr %data, i64 0, i64 0
  store i8 0, ptr %arrayidx, align 4
  ret void
}

; Function Attrs: mustprogress uwtable
define hidden void @_ZN6Assimp15BlenderImporter18AddSentinelTextureEP10aiMaterialPKNS_7Blender8MaterialEPKNS3_4MTexERNS3_14ConversionDataE(ptr noundef nonnull align 8 dereferenceable(80) %this, ptr noundef %out, ptr noundef %mat, ptr noundef %tex, ptr noundef nonnull align 8 dereferenceable(336) %conv_data) #2 align 2 {
entry:
  %this.addr = alloca ptr, align 8
  %out.addr = alloca ptr, align 8
  %mat.addr = alloca ptr, align 8
  %tex.addr = alloca ptr, align 8
  %conv_data.addr = alloca ptr, align 8
  %name = alloca %struct.aiString, align 4
  store ptr %this, ptr %this.addr, align 8
  store ptr %out, ptr %out.addr, align 8
  store ptr %mat, ptr %mat.addr, align 8
  store ptr %tex, ptr %tex.addr, align 8
  store ptr %conv_data, ptr %conv_data.addr, align 8
  call void @_ZN8aiStringC2Ev(ptr noundef nonnull align 4 dereferenceable(1028) %name) #15
  %data = getelementptr inbounds %struct.aiString, ptr %name, i32 0, i32 1
  %arraydecay = getelementptr inbounds [1024 x i8], ptr %data, i64 0, i64 0
  %0 = load ptr, ptr %conv_data.addr, align 8
  %sentinel_cnt = getelementptr inbounds %"struct.Assimp::Blender::ConversionData", ptr %0, i32 0, i32 7
  %1 = load i32, ptr %sentinel_cnt, align 8
  %inc = add i32 %1, 1
  store i32 %inc, ptr %sentinel_cnt, align 8
  %2 = load ptr, ptr %tex.addr, align 8
  %tex2 = getelementptr inbounds %"struct.Assimp::Blender::MTex", ptr %2, i32 0, i32 4
  %call = call noundef ptr @_ZNKSt19__shared_ptr_accessIN6Assimp7Blender3TexELN9__gnu_cxx12_Lock_policyE2ELb0ELb0EEptEv(ptr noundef nonnull align 1 dereferenceable(1) %tex2) #15
  %type = getelementptr inbounds %"struct.Assimp::Blender::Tex", ptr %call, i32 0, i32 3
  %3 = load i32, ptr %type, align 4
  %call3 = call noundef ptr @_ZN6Assimp7Blender27GetTextureTypeDisplayStringENS0_3Tex4TypeE(i32 noundef %3)
  %call4 = call i32 (ptr, i64, ptr, ...) @snprintf(ptr noundef %arraydecay, i64 noundef 1024, ptr noundef @.str.23, i32 noundef %1, ptr noundef %call3) #15
  %length = getelementptr inbounds %struct.aiString, ptr %name, i32 0, i32 0
  store i32 %call4, ptr %length, align 4
  %4 = load ptr, ptr %out.addr, align 8
  %5 = load ptr, ptr %conv_data.addr, align 8
  %next_texture = getelementptr inbounds %"struct.Assimp::Blender::ConversionData", ptr %5, i32 0, i32 8
  %arrayidx = getelementptr inbounds [19 x i32], ptr %next_texture, i64 0, i64 1
  %6 = load i32, ptr %arrayidx, align 4
  %inc5 = add i32 %6, 1
  store i32 %inc5, ptr %arrayidx, align 4
  %call6 = call noundef i32 @_ZN10aiMaterial11AddPropertyEPK8aiStringPKcjj(ptr noundef nonnull align 8 dereferenceable(16) %4, ptr noundef %name, ptr noundef @.str.22, i32 noundef 1, i32 noundef %6)
  ret void
}