; Function Attrs: mustprogress uwtable
define hidden void @_ZN6Assimp15BlenderImporter18AddSentinelTextureEP10aiMaterialPKNS_7Blender8MaterialEPKNS3_4MTexERNS3_14ConversionDataE(ptr nocapture noundef nonnull readnone align 8 dereferenceable(80) %this, ptr noundef %out, ptr nocapture noundef readnone %mat, ptr nocapture noundef readonly %tex, ptr nocapture noundef nonnull align 8 dereferenceable(336) %conv_data) local_unnamed_addr #1 align 2 {
entry:
  %name = alloca %struct.aiString, align 4
  %data.i = getelementptr inbounds i8, ptr %name, i64 4
  store i8 0, ptr %data.i, align 4
  %sentinel_cnt = getelementptr inbounds i8, ptr %conv_data, i64 248
  %0 = load i32, ptr %sentinel_cnt, align 8
  %inc = add i32 %0, 1
  store i32 %inc, ptr %sentinel_cnt, align 8
  %tex2 = getelementptr inbounds i8, ptr %tex, i64 40
  %1 = load ptr, ptr %tex2, align 8
  %type = getelementptr inbounds i8, ptr %1, i64 1068
  %2 = load i32, ptr %type, align 4
  %switch.tableidx = add i32 %2, -1
  %3 = icmp ult i32 %switch.tableidx, 13
  br i1 %3, label %switch.lookup, label %_ZN6Assimp7Blender27GetTextureTypeDisplayStringENS0_3Tex4TypeE.exit

switch.lookup:                                    ; preds = %entry
  %4 = zext nneg i32 %switch.tableidx to i64
  %switch.gep = getelementptr inbounds [13 x ptr], ptr @switch.table._ZN6Assimp15BlenderImporter14ResolveTextureEP10aiMaterialPKNS_7Blender8MaterialEPKNS3_4MTexERNS3_14ConversionDataE, i64 0, i64 %4
  %switch.load = load ptr, ptr %switch.gep, align 8
  br label %_ZN6Assimp7Blender27GetTextureTypeDisplayStringENS0_3Tex4TypeE.exit

_ZN6Assimp7Blender27GetTextureTypeDisplayStringENS0_3Tex4TypeE.exit: ; preds = %entry, %switch.lookup
  %retval.0.i = phi ptr [ %switch.load, %switch.lookup ], [ @.str.122, %entry ]
  %call4 = call i32 (ptr, i64, ptr, ...) @snprintf(ptr noundef nonnull dereferenceable(1) %data.i, i64 noundef 1024, ptr noundef nonnull @.str.23, i32 noundef %0, ptr noundef nonnull %retval.0.i) #20
  store i32 %call4, ptr %name, align 4
  %arrayidx = getelementptr inbounds i8, ptr %conv_data, i64 256
  %5 = load i32, ptr %arrayidx, align 8
  %inc5 = add i32 %5, 1
  store i32 %inc5, ptr %arrayidx, align 8
  %call6 = call noundef i32 @_ZN10aiMaterial11AddPropertyEPK8aiStringPKcjj(ptr noundef nonnull align 8 dereferenceable(16) %out, ptr noundef nonnull %name, ptr noundef nonnull @.str.22, i32 noundef 1, i32 noundef %5)
  ret void
}